target datalayout = "e-m:e-p270:32:32-p271:32:32-p272:64:64-i64:64-i128:128-f80:128-n8:16:32:64-S128"
target triple = "x86_64-pc-linux-gnu"

; Function Attrs: inlinehint nounwind uwtable
define internal i64 @mbedtls_ct_bool(i64 noundef %0) #3 {
  %2 = alloca i64, align 8
  %3 = alloca i64, align 8
  store i64 %0, ptr %2, align 8, !tbaa !43
  call void @llvm.lifetime.start.p0(i64 8, ptr %3) #7
  %4 = load i64, ptr %2, align 8, !tbaa !43
  %5 = call i64 asm sideeffect "mov  $1, $0                                \0A\09neg  $0                                      \0A\09or   $1, $0                                \0A\09sar  $$63, $0                                 \0A\09", "=&{ax},{di},~{dirflag},~{fpsr},~{flags}"(i64 %4) #7, !srcloc !67
  store i64 %5, ptr %3, align 8, !tbaa !43
  %6 = load i64, ptr %3, align 8, !tbaa !43
  call void @llvm.lifetime.end.p0(i64 8, ptr %3) #7
  ret i64 %6
}

; Function Attrs: inlinehint nounwind uwtable
define internal i64 @mbedtls_ct_compiler_opaque(i64 noundef %0) #3 {
  %2 = alloca i64, align 8
  store i64 %0, ptr %2, align 8, !tbaa !43
  %3 = load i64, ptr %2, align 8, !tbaa !43
  %4 = call i64 asm sideeffect "", "=r,0,~{dirflag},~{fpsr},~{flags}"(i64 %3) #7, !srcloc !66
  store i64 %4, ptr %2, align 8, !tbaa !43
  %5 = load i64, ptr %2, align 8, !tbaa !43
  ret i64 %5
}

; Function Attrs: inlinehint nounwind uwtable
define internal i64 @mbedtls_ct_uint_lt(i64 noundef %0, i64 noundef %1) #3 {
  %3 = alloca i64, align 8
  %4 = alloca i64, align 8
  %5 = alloca i64, align 8
  store i64 %0, ptr %3, align 8, !tbaa !43
  store i64 %1, ptr %4, align 8, !tbaa !43
  call void @llvm.lifetime.start.p0(i64 8, ptr %5) #7
  %6 = load i64, ptr %3, align 8, !tbaa !43
  %7 = load i64, ptr %4, align 8, !tbaa !43
  %8 = call { i64, i64, i64 } asm sideeffect "mov $1, $0                                 \0A\09xor $2, $0                                 \0A\09sub $2, $1                                 \0A\09and $0, $2                                 \0A\09not $0                                       \0A\09and $0, $1                                 \0A\09or $2, $1                                  \0A\09sar $$63, $1                                  \0A\09", "=&{ax},=&{di},=&{si},1,2,~{dirflag},~{fpsr},~{flags}"(i64 %6, i64 %7) #7, !srcloc !65
  %9 = extractvalue { i64, i64, i64 } %8, 0
  %10 = extractvalue { i64, i64, i64 } %8, 1
  %11 = extractvalue { i64, i64, i64 } %8, 2
  store i64 %9, ptr %5, align 8, !tbaa !43
  store i64 %10, ptr %3, align 8, !tbaa !43
  store i64 %11, ptr %4, align 8, !tbaa !43
  %12 = load i64, ptr %3, align 8, !tbaa !43
  call void @llvm.lifetime.end.p0(i64 8, ptr %5) #7
  ret i64 %12
}

; Function Attrs: inlinehint nounwind uwtable
define internal i32 @mbedtls_ct_error_if_else_0(i64 noundef %0, i32 noundef %1) #3 {
  %3 = alloca i64, align 8
  %4 = alloca i32, align 4
  store i64 %0, ptr %3, align 8, !tbaa !43
  store i32 %1, ptr %4, align 4, !tbaa !3
  %5 = load i64, ptr %3, align 8, !tbaa !43
  %6 = load i32, ptr %4, align 4, !tbaa !3
  %7 = sub nsw i32 0, %6
  %8 = sext i32 %7 to i64
  %9 = and i64 %5, %8
  %10 = trunc i64 %9 to i32
  %11 = sub nsw i32 0, %10
  ret i32 %11
}

; Function Attrs: inlinehint nounwind uwtable
define internal i64 @mbedtls_ct_bool_and(i64 noundef %0, i64 noundef %1) #3 {
  %3 = alloca i64, align 8
  %4 = alloca i64, align 8
  store i64 %0, ptr %3, align 8, !tbaa !43
  store i64 %1, ptr %4, align 8, !tbaa !43
  %5 = load i64, ptr %3, align 8, !tbaa !43
  %6 = load i64, ptr %4, align 8, !tbaa !43
  %7 = and i64 %5, %6
  ret i64 %7
}

; Function Attrs: inlinehint nounwind uwtable
define internal i64 @mbedtls_ct_uint_ne(i64 noundef %0, i64 noundef %1) #3 {
  %3 = alloca i64, align 8
  %4 = alloca i64, align 8
  %5 = alloca i64, align 8
  store i64 %0, ptr %3, align 8, !tbaa !43
  store i64 %1, ptr %4, align 8, !tbaa !43
  call void @llvm.lifetime.start.p0(i64 8, ptr %5) #7
  %6 = load i64, ptr %3, align 8, !tbaa !43
  %7 = call i64 @mbedtls_ct_compiler_opaque(i64 noundef %6)
  %8 = load i64, ptr %4, align 8, !tbaa !43
  %9 = call i64 @mbedtls_ct_compiler_opaque(i64 noundef %8)
  %10 = xor i64 %7, %9
  store i64 %10, ptr %5, align 8, !tbaa !43
  %11 = load i64, ptr %5, align 8, !tbaa !43
  %12 = call i64 @mbedtls_ct_bool(i64 noundef %11)
  call void @llvm.lifetime.end.p0(i64 8, ptr %5) #7
  ret i64 %12
}

; Function Attrs: inlinehint nounwind uwtable
define internal i64 @mbedtls_ct_uint_ge(i64 noundef %0, i64 noundef %1) #3 {
  %3 = alloca i64, align 8
  %4 = alloca i64, align 8
  store i64 %0, ptr %3, align 8, !tbaa !43
  store i64 %1, ptr %4, align 8, !tbaa !43
  %5 = load i64, ptr %3, align 8, !tbaa !43
  %6 = load i64, ptr %4, align 8, !tbaa !43
  %7 = call i64 @mbedtls_ct_uint_lt(i64 noundef %5, i64 noundef %6)
  %8 = xor i64 %7, -1
  ret i64 %8
}

; Function Attrs: inlinehint nounwind uwtable
define internal i64 @mbedtls_ct_bool_or(i64 noundef %0, i64 noundef %1) #3 {
  %3 = alloca i64, align 8
  %4 = alloca i64, align 8
  store i64 %0, ptr %3, align 8, !tbaa !43
  store i64 %1, ptr %4, align 8, !tbaa !43
  %5 = load i64, ptr %3, align 8, !tbaa !43
  %6 = load i64, ptr %4, align 8, !tbaa !43
  %7 = or i64 %5, %6
  ret i64 %7
}

; Function Attrs: inlinehint nounwind uwtable
define internal i64 @mbedtls_ct_uint_eq(i64 noundef %0, i64 noundef %1) #3 {
  %3 = alloca i64, align 8
  %4 = alloca i64, align 8
  store i64 %0, ptr %3, align 8, !tbaa !43
  store i64 %1, ptr %4, align 8, !tbaa !43
  %5 = load i64, ptr %3, align 8, !tbaa !43
  %6 = load i64, ptr %4, align 8, !tbaa !43
  %7 = call i64 @mbedtls_ct_uint_ne(i64 noundef %5, i64 noundef %6)
  %8 = xor i64 %7, -1
  ret i64 %8
}

; Function Attrs: inlinehint nounwind uwtable
define internal i64 @mbedtls_ct_uint_gt(i64 noundef %0, i64 noundef %1) #3 {
  %3 = alloca i64, align 8
  %4 = alloca i64, align 8
  store i64 %0, ptr %3, align 8, !tbaa !43
  store i64 %1, ptr %4, align 8, !tbaa !43
  %5 = load i64, ptr %4, align 8, !tbaa !43
  %6 = load i64, ptr %3, align 8, !tbaa !43
  %7 = call i64 @mbedtls_ct_uint_lt(i64 noundef %5, i64 noundef %6)
  ret i64 %7
}

; Function Attrs: nounwind uwtable
define internal i32 @get_pkcs_padding(ptr noundef %0, i64 noundef %1, ptr noundef %2) #0 {
  %4 = alloca i32, align 4
  %5 = alloca ptr, align 8
  %6 = alloca i64, align 8
  %7 = alloca ptr, align 8
  %8 = alloca i64, align 8
  %9 = alloca i64, align 8
  %10 = alloca i8, align 1
  %11 = alloca i32, align 4
  %12 = alloca i64, align 8
  %13 = alloca i64, align 8
  %14 = alloca i64, align 8
  store ptr %0, ptr %5, align 8, !tbaa !18
  store i64 %1, ptr %6, align 8, !tbaa !43
  store ptr %2, ptr %7, align 8, !tbaa !46
  call void @llvm.lifetime.start.p0(i64 8, ptr %8) #7
  call void @llvm.lifetime.start.p0(i64 8, ptr %9) #7
  call void @llvm.lifetime.start.p0(i64 1, ptr %10) #7
  %15 = load ptr, ptr %5, align 8, !tbaa !18
  %16 = icmp eq ptr null, %15
  br i1 %16, label %20, label %17

17:                                               ; preds = %3
  %18 = load ptr, ptr %7, align 8, !tbaa !46
  %19 = icmp eq ptr null, %18
  br i1 %19, label %20, label %21

20:                                               ; preds = %17, %3
  store i32 -24832, ptr %4, align 4
  store i32 1, ptr %11, align 4
  br label %82

21:                                               ; preds = %17
  %22 = load ptr, ptr %5, align 8, !tbaa !18
  %23 = load i64, ptr %6, align 8, !tbaa !43
  %24 = sub i64 %23, 1
  %25 = getelementptr inbounds nuw i8, ptr %22, i64 %24
  %26 = load i8, ptr %25, align 1, !tbaa !57
  store i8 %26, ptr %10, align 1, !tbaa !57
  %27 = load i8, ptr %10, align 1, !tbaa !57
  %28 = zext i8 %27 to i32
  %29 = icmp eq i32 %28, 0
  br i1 %29, label %35, label %30

30:                                               ; preds = %21
  %31 = load i8, ptr %10, align 1, !tbaa !57
  %32 = zext i8 %31 to i64
  %33 = load i64, ptr %6, align 8, !tbaa !43
  %34 = icmp ugt i64 %32, %33
  br i1 %34, label %35, label %36

35:                                               ; preds = %30, %21
  store i32 -25088, ptr %4, align 4
  store i32 1, ptr %11, align 4
  br label %82

36:                                               ; preds = %30
  %37 = load i64, ptr %6, align 8, !tbaa !43
  %38 = load i8, ptr %10, align 1, !tbaa !57
  %39 = zext i8 %38 to i64
  %40 = sub i64 %37, %39
  %41 = load ptr, ptr %7, align 8, !tbaa !46
  store i64 %40, ptr %41, align 8, !tbaa !43
  call void @llvm.lifetime.start.p0(i64 8, ptr %12) #7
  %42 = load i8, ptr %10, align 1, !tbaa !57
  %43 = zext i8 %42 to i64
  %44 = load i64, ptr %6, align 8, !tbaa !43
  %45 = call i64 @mbedtls_ct_uint_gt(i64 noundef %43, i64 noundef %44)
  store i64 %45, ptr %12, align 8, !tbaa !43
  %46 = load i64, ptr %12, align 8, !tbaa !43
  %47 = load i8, ptr %10, align 1, !tbaa !57
  %48 = zext i8 %47 to i64
  %49 = call i64 @mbedtls_ct_uint_eq(i64 noundef %48, i64 noundef 0)
  %50 = call i64 @mbedtls_ct_bool_or(i64 noundef %46, i64 noundef %49)
  store i64 %50, ptr %12, align 8, !tbaa !43
  %51 = load i64, ptr %6, align 8, !tbaa !43
  %52 = load i8, ptr %10, align 1, !tbaa !57
  %53 = zext i8 %52 to i64
  %54 = sub i64 %51, %53
  store i64 %54, ptr %9, align 8, !tbaa !43
  store i64 0, ptr %8, align 8, !tbaa !43
  br label %55

55:                                               ; preds = %76, %36
  %56 = load i64, ptr %8, align 8, !tbaa !43
  %57 = load i64, ptr %6, align 8, !tbaa !43
  %58 = icmp ult i64 %56, %57
  br i1 %58, label %59, label %79

59:                                               ; preds = %55
  call void @llvm.lifetime.start.p0(i64 8, ptr %13) #7
  %60 = load i64, ptr %8, align 8, !tbaa !43
  %61 = load i64, ptr %9, align 8, !tbaa !43
  %62 = call i64 @mbedtls_ct_uint_ge(i64 noundef %60, i64 noundef %61)
  store i64 %62, ptr %13, align 8, !tbaa !43
  call void @llvm.lifetime.start.p0(i64 8, ptr %14) #7
  %63 = load ptr, ptr %5, align 8, !tbaa !18
  %64 = load i64, ptr %8, align 8, !tbaa !43
  %65 = getelementptr inbounds nuw i8, ptr %63, i64 %64
  %66 = load i8, ptr %65, align 1, !tbaa !57
  %67 = zext i8 %66 to i64
  %68 = load i8, ptr %10, align 1, !tbaa !57
  %69 = zext i8 %68 to i64
  %70 = call i64 @mbedtls_ct_uint_ne(i64 noundef %67, i64 noundef %69)
  store i64 %70, ptr %14, align 8, !tbaa !43
  %71 = load i64, ptr %12, align 8, !tbaa !43
  %72 = load i64, ptr %13, align 8, !tbaa !43
  %73 = load i64, ptr %14, align 8, !tbaa !43
  %74 = call i64 @mbedtls_ct_bool_and(i64 noundef %72, i64 noundef %73)
  %75 = call i64 @mbedtls_ct_bool_or(i64 noundef %71, i64 noundef %74)
  store i64 %75, ptr %12, align 8, !tbaa !43
  call void @llvm.lifetime.end.p0(i64 8, ptr %14) #7
  call void @llvm.lifetime.end.p0(i64 8, ptr %13) #7
  br label %76

76:                                               ; preds = %59
  %77 = load i64, ptr %8, align 8, !tbaa !43
  %78 = add i64 %77, 1
  store i64 %78, ptr %8, align 8, !tbaa !43
  br label %55, !llvm.loop !59

79:                                               ; preds = %55
  %80 = load i64, ptr %12, align 8, !tbaa !43
  %81 = call i32 @mbedtls_ct_error_if_else_0(i64 noundef %80, i32 noundef -25088)
  store i32 %81, ptr %4, align 4
  store i32 1, ptr %11, align 4
  call void @llvm.lifetime.end.p0(i64 8, ptr %12) #7
  br label %82

82:                                               ; preds = %79, %35, %20
  call void @llvm.lifetime.end.p0(i64 1, ptr %10) #7
  call void @llvm.lifetime.end.p0(i64 8, ptr %9) #7
  call void @llvm.lifetime.end.p0(i64 8, ptr %8) #7
  %83 = load i32, ptr %4, align 4
  ret i32 %83
}