; Function Attrs: nounwind uwtable
define internal range(i32 -25088, 1) i32 @get_pkcs_padding(ptr noundef readonly %0, i64 noundef %1, ptr noundef writeonly %2) #8 {
  %4 = icmp eq ptr %0, null
  %5 = icmp eq ptr %2, null
  %or.cond = or i1 %4, %5
  br i1 %or.cond, label %39, label %6

6:                                                ; preds = %3
  %7 = getelementptr i8, ptr %0, i64 %1
  %8 = getelementptr i8, ptr %7, i64 -1
  %9 = load i8, ptr %8, align 1, !tbaa !47
  %10 = icmp eq i8 %9, 0
  br i1 %10, label %39, label %11

11:                                               ; preds = %6
  %12 = zext i8 %9 to i64
  %13 = icmp ult i64 %1, %12
  br i1 %13, label %39, label %.lr.ph.preheader

.lr.ph.preheader:                                 ; preds = %11
  %14 = sub nuw i64 %1, %12
  store i64 %14, ptr %2, align 8, !tbaa !37
  %15 = tail call { i64, i64, i64 } asm sideeffect "mov $1, $0                                 \0A\09xor $2, $0                                 \0A\09sub $2, $1                                 \0A\09and $0, $2                                 \0A\09not $0                                       \0A\09and $0, $1                                 \0A\09or $2, $1                                  \0A\09sar $$63, $1                                  \0A\09", "=&{ax},=&{di},=&{si},1,2,~{dirflag},~{fpsr},~{flags}"(i64 %1, i64 range(i64 0, 256) %12) #15, !srcloc !49
  %16 = extractvalue { i64, i64, i64 } %15, 1
  %17 = tail call i64 asm sideeffect "", "=r,0,~{dirflag},~{fpsr},~{flags}"(i64 range(i64 0, 256) %12) #15, !srcloc !50
  %18 = tail call i64 asm sideeffect "", "=r,0,~{dirflag},~{fpsr},~{flags}"(i64 range(i64 -1, 256) 0) #15, !srcloc !50
  %19 = xor i64 %18, %17
  %20 = tail call i64 asm sideeffect "mov  $1, $0                                \0A\09neg  $0                                      \0A\09or   $1, $0                                \0A\09sar  $$63, $0                                 \0A\09", "=&{ax},{di},~{dirflag},~{fpsr},~{flags}"(i64 %19) #15, !srcloc !51
  %21 = xor i64 %20, -1
  %22 = or i64 %16, %21
  br label %.lr.ph

.lr.ph:                                           ; preds = %.lr.ph.preheader, %.lr.ph
  %.02936 = phi i64 [ %35, %.lr.ph ], [ 0, %.lr.ph.preheader ]
  %.03035 = phi i64 [ %34, %.lr.ph ], [ %22, %.lr.ph.preheader ]
  %23 = tail call { i64, i64, i64 } asm sideeffect "mov $1, $0                                 \0A\09xor $2, $0                                 \0A\09sub $2, $1                                 \0A\09and $0, $2                                 \0A\09not $0                                       \0A\09and $0, $1                                 \0A\09or $2, $1                                  \0A\09sar $$63, $1                                  \0A\09", "=&{ax},=&{di},=&{si},1,2,~{dirflag},~{fpsr},~{flags}"(i64 %.02936, i64 %14) #15, !srcloc !49
  %24 = extractvalue { i64, i64, i64 } %23, 1
  %25 = xor i64 %24, -1
  %26 = getelementptr inbounds nuw i8, ptr %0, i64 %.02936
  %27 = load i8, ptr %26, align 1, !tbaa !47
  %28 = zext i8 %27 to i64
  %29 = tail call i64 asm sideeffect "", "=r,0,~{dirflag},~{fpsr},~{flags}"(i64 range(i64 0, 256) %28) #15, !srcloc !50
  %30 = tail call i64 asm sideeffect "", "=r,0,~{dirflag},~{fpsr},~{flags}"(i64 range(i64 0, 256) %12) #15, !srcloc !50
  %31 = xor i64 %30, %29
  %32 = tail call i64 asm sideeffect "mov  $1, $0                                \0A\09neg  $0                                      \0A\09or   $1, $0                                \0A\09sar  $$63, $0                                 \0A\09", "=&{ax},{di},~{dirflag},~{fpsr},~{flags}"(i64 %31) #15, !srcloc !51
  %33 = and i64 %32, %25
  %34 = or i64 %33, %.03035
  %35 = add nuw i64 %.02936, 1
  %exitcond.not = icmp eq i64 %35, %1
  br i1 %exitcond.not, label %._crit_edge, label %.lr.ph, !llvm.loop !52

._crit_edge:                                      ; preds = %.lr.ph
  %36 = trunc i64 %34 to i32
  %37 = and i32 %36, 25088
  %38 = sub nsw i32 0, %37
  br label %39

39:                                               ; preds = %6, %11, %3, %._crit_edge
  %.0 = phi i32 [ %38, %._crit_edge ], [ -24832, %3 ], [ -25088, %11 ], [ -25088, %6 ]
  ret i32 %.0
}